Certificate:
    Data:
        Version: 1 (0x0)
        Serial Number: 1 (0x1)
    Signature Algorithm: sha256WithRSAEncryption
        Issuer: C=DV, ST=Dev, L=Dev, O=Dev Org, CN=*.dev.org
        Validity
            Not Before: Oct  6 20:23:15 2018 GMT
            Not After : Oct  6 20:23:15 2019 GMT
        Subject: C=DV, ST=Dev State, O=Dev Org, CN=*.dev
        Subject Public Key Info:
            Public Key Algorithm: rsaEncryption
                Public-Key: (2048 bit)
                Modulus:
                    00:a1:7f:98:49:c4:d5:8a:eb:26:16:bf:39:8c:fa:
                    7c:8d:b3:49:d7:ed:e6:35:b3:a3:49:19:4e:a1:e7:
                    37:16:f4:61:82:82:fe:ef:da:27:cc:b6:16:9f:de:
                    ae:e7:62:dc:83:19:57:1f:40:8a:7f:28:c4:1e:1d:
                    4e:41:5b:12:a5:f7:b9:bb:74:e0:3c:03:17:52:49:
                    52:6c:f8:27:0a:0d:63:d6:07:d5:2b:3a:dc:6e:fd:
                    7d:4d:01:10:45:58:2c:e3:d5:ef:16:2f:70:53:1a:
                    42:2e:83:21:ce:f1:9e:d0:5e:22:df:42:92:47:2b:
                    32:c1:15:2e:13:99:84:c0:08:9c:ff:8b:c4:d7:b0:
                    c5:ef:67:3b:7f:09:39:fb:40:22:98:af:fb:3d:db:
                    64:fd:32:b9:b7:99:d4:2e:8d:1d:f0:9c:bd:85:bd:
                    fb:4a:f6:ed:cc:0e:45:5d:01:fa:e8:ab:54:aa:bb:
                    77:1a:f6:b9:25:68:93:20:f6:f2:3d:bf:ca:10:33:
                    4e:9c:57:45:a1:04:be:16:ad:6f:2f:cc:8a:5a:c6:
                    0e:da:ed:57:f1:29:82:5f:14:79:4c:db:dc:05:c7:
                    9c:a4:10:9d:06:f3:d2:26:d5:62:8e:6f:49:4e:c6:
                    d0:26:c1:8b:18:b4:ed:f3:d7:4b:02:ae:1f:2e:76:
                    75:01
                Exponent: 65537 (0x10001)
    Signature Algorithm: sha256WithRSAEncryption
         73:22:07:c3:a0:f1:05:b4:f1:ac:dd:f6:a2:51:33:84:80:ba:
         10:e4:32:7d:97:42:53:2a:63:36:f5:cf:fe:f0:b3:11:31:43:
         df:22:2a:9b:e2:81:ef:94:0e:01:87:46:36:00:ef:3c:e0:2c:
         77:7f:e9:7e:bb:a6:4e:78:6a:2f:c8:e6:d2:87:e8:55:5c:61:
         14:11:db:4e:5d:90:aa:03:f7:ca:cf:52:ac:90:b2:d4:46:db:
         4a:a0:96:b8:70:e6:04:7c:da:00:6b:ea:89:8a:12:f2:58:66:
         b3:0f:e1:34:34:df:fa:53:2c:21:cf:3d:7f:b2:e2:bd:29:e0:
         b5:5b:07:d7:cb:e3:85:a1:65:c0:45:43:06:87:d0:87:41:63:
         16:ad:2d:4e:91:8d:36:d5:28:4b:e2:96:ed:21:ab:5e:f6:44:
         f6:07:ab:2f:d8:62:6f:18:77:35:38:04:e1:15:d1:e4:b1:c1:
         8d:30:eb:c7:22:cf:f5:14:ed:91:a8:06:f8:29:ea:a3:36:50:
         3e:21:c2:5b:2d:8b:d1:71:24:0a:8f:03:1d:08:46:7f:a5:34:
         de:cc:b7:8b:96:5a:8f:e9:3c:aa:4a:c6:0b:a1:3f:a5:df:af:
         ae:58:4c:b8:15:17:65:0f:79:d3:e0:c3:e8:ee:fd:d6:01:ab:
         86:35:87:0d
-----BEGIN CERTIFICATE-----
MIIDBjCCAe4CAQEwDQYJKoZIhvcNAQELBQAwTzELMAkGA1UEBhMCRFYxDDAKBgNV
BAgMA0RldjEMMAoGA1UEBwwDRGV2MRAwDgYDVQQKDAdEZXYgT3JnMRIwEAYDVQQD
DAkqLmRldi5vcmcwHhcNMTgxMDA2MjAyMzE1WhcNMTkxMDA2MjAyMzE1WjBDMQsw
CQYDVQQGEwJEVjESMBAGA1UECAwJRGV2IFN0YXRlMRAwDgYDVQQKDAdEZXYgT3Jn
MQ4wDAYDVQQDDAUqLmRldjCCASIwDQYJKoZIhvcNAQEBBQADggEPADCCAQoCggEB
AKF/mEnE1YrrJha/OYz6fI2zSdft5jWzo0kZTqHnNxb0YYKC/u/aJ8y2Fp/erudi
3IMZVx9Ain8oxB4dTkFbEqX3ubt04DwDF1JJUmz4JwoNY9YH1Ss63G79fU0BEEVY
LOPV7xYvcFMaQi6DIc7xntBeIt9CkkcrMsEVLhOZhMAInP+LxNewxe9nO38JOftA
Ipiv+z3bZP0yubeZ1C6NHfCcvYW9+0r27cwORV0B+uirVKq7dxr2uSVokyD28j2/
yhAzTpxXRaEEvhatby/MilrGDtrtV/Epgl8UeUzb3AXHnKQQnQbz0ibVYo5vSU7G
0CbBixi07fPXSwKuHy52dQECAwEAATANBgkqhkiG9w0BAQsFAAOCAQEAcyIHw6Dx
BbTxrN32olEzhIC6EOQyfZdCUypjNvXP/vCzETFD3yIqm+KB75QOAYdGNgDvPOAs
d3/pfrumTnhqL8jm0ofoVVxhFBHbTl2QqgP3ys9SrJCy1EbbSqCWuHDmBHzaAGvq
iYoS8lhmsw/hNDTf+lMsIc89f7LivSngtVsH18vjhaFlwEVDBofQh0FjFq0tTpGN
NtUoS+KW7SGrXvZE9gerL9hibxh3NTgE4RXR5LHBjTDrxyLP9RTtkagG+CnqozZQ
PiHCWy2L0XEkCo8DHQhGf6U03sy3i5Zaj+k8qkrGC6E/pd+vrlhMuBUXZQ950+DD
6O791gGrhjWHDQ==
-----END CERTIFICATE-----
